(lp0
F0.334377962124
aF0.118019835563
aF0.500181954674
aF0.180993768325
aF0.0361987207879
aF0.0873753912987
aF0.175499173629
aF0.632150635214
aF0.182526871486
aF0.0253331479062
aF0.641610563439
aF0.0660179876062
aF0.160198623569
aF0.0182202321888
aF0.00882179201398
aF0.0242847718593
aF0.143388350099
aF0.0292755832608
aF0.455387148456
aF0.164368562811
aF0.11953956409
aF0.166579289782
aF0.0680549327225
aF0.0631281660253
aF0.10169619884
aF0.643908765898
aF0.078906024034
aF0.042596337212
aF0.684605965317
aF0.430885398735
aF0.0794588453854
aF0.0820128900381
aF0.0587480560714
aF0.053194565319
aF0.0184718916605
aF0.180445347668
aF0.0269256768267
aF0.0945736726482
aF0.0250708952537
aF0.0208859840588
aF0.488647549119
aF0.137048411818
aF0.117508717019
aF0.20036907906
aF0.483993135318
aF0.164450058659
aF0.0740874075165
aF0.045845940792
aF0.201536778793
aF0.0862562070565
aF0.0817184149016
aF0.0418333712664
aF0.420755590409
aF0.0545329285316
aF0.0997868719391
aF0.0292727498415
aF0.120617225607
aF0.0670944405721
aF0.0547920434403
aF0.047611481678
aF0.488023471456
aF0.111238007369
aF0.156963396356
aF0.390205176871
aF0.0087232591922
aF0.249022212963
aF0.0067182463181
aF0.0214082988735
aF0.0339507262723
aF0.445213688441
aF0.153659759486
aF0.205219369011
aF0.151259684493
aF0.0530530984924
aF0.390410328125
aF0.055020520727
aF0.0192698050136
aF0.180792292669
aF0.338620887286
aF0.152637281579
aF0.083773207518
aF0.0479473230741
aF0.0490667598964
aF0.172463450831
aF0.0775403131613
aF0.0187090155281
aF0.0453567397537
aF0.0468606405656
aF0.50340388649
aF0.765161624823
aF0.354048380328
aF0.115043053161
aF0.10099782459
aF0.0699458358793
aF0.0941607718916
aF0.0329497435238
aF0.0353963354849
aF0.0124532757709
aF0.0272472222722
aF0.660974673716
aF0.0444279325752
aF0.0296940406111
aF0.0258824948697
aF0.0937808048494
aF0.0549510212
aF0.0698596107414
aF0.62876288441
aF0.0300724106303
aF0.118895749584
aF0.270569046859
aF0.0485714617495
aF0.0147808396358
aF0.13436561356
aF0.00978623994287
aF0.596638661584
aF0.0511531528631
aF0.0311169287834
aF0.688443285951
aF0.0304890995787
aF0.125083110439
aF0.0591176175227
aF0.10050691377
aF0.492803459609
aF0.013166422107
aF0.0281313654636
aF0.0443201769441
aF0.111288292794
aF0.0728612744885
aF0.0203541998122
aF0.483986732153
aF0.0274208226858
aF0.0450202714537
aF0.0182845966698
aF0.0923060208859
aF0.0238894904346
aF0.84222801418
aF0.162494552787
aF0.03912866178
aF0.0180226221652
aF0.232230183436
aF0.660111765465
aF0.307456886328
aF0.113192604935
aF0.614920005424
aF0.0183665943375
aF0.0106053444248
aF0.0398605452593
aF0.0484105092879
aF0.0251081710208
aF0.568447448163
aF0.124884869989
aF0.193715813585
aF0.0197969228168
aF0.117535565385
aF0.116199591905
aF0.012421770504
aF0.225191975451
aF0.0194670982919
aF0.192783451492
aF0.0276264558499
aF0.0870190206641
aF0.0132084547169
aF0.016380090305
aF0.190099534529
aF0.028641742666
aF0.0999596578128
aF0.464612439324
aF0.110707044679
aF0.388459668656
aF0.436787424066
aF0.020890006281
aF0.0188261637906
aF0.318183124097
aF0.0153721812059
aF0.147762526113
aF0.0681817039834
aF0.520278881919
aF0.121988063757
aF0.260441240392
aF0.0108592446397
aF0.498522196517
aF0.029299248731
aF0.0132836078953
aF0.117578232981
aF0.035426517722
aF0.52709717957
aF0.0939584177636
aF0.0427628288136
aF0.282788217453
aF0.131959838462
aF0.167989322778
aF0.0757915964007
aF0.255728492562
aF0.0496008415088
aF0.0314464765173
aF0.126872788755
aF0.0258905354608
aF0.273885541791
aF0.0522168448099
aF0.0830331734551
aF0.0962970954695
aF0.13508853447
aF0.108621844786
aF0.104788057464
aF0.29172646788
aF0.0812109424114
aF0.0228289511099
aF0.0529304308537
aF0.0241518102674
aF0.0217603774615
aF0.0887334079213
aF0.143025094259
aF0.0939416522135
aF0.0557072184272
aF0.0233930272692
aF0.0344318368794
aF0.0697766185787
aF0.0616872766953
aF0.688537137099
aF0.548753020192
aF0.0545717850595
aF0.374646682838
aF0.0835083681959
aF0.21816753721
aF0.0903671112857
aF0.15288354997
aF0.0201717210159
aF0.0191349883701
aF0.0302167755037
aF0.0101479045374
aF0.656605112484
aF0.788695545591
aF0.0570877335288
aF0.0999536429218
aF0.10415688575
aF0.115483060865
aF0.770444349306
aF0.425373807637
aF0.0804467066129
aF0.398562019388
aF0.0772544870127
aF0.0662649053374
aF0.60934022115
aF0.0273956919977
aF0.00637875589598
aF0.193162980324
aF0.115522366494
aF0.0416046707443
aF0.167562853015
aF0.0332507851229
aF0.0761742367075
aF0.0867025032585
aF0.0101621265186
aF0.0438464857155
aF0.154684417846
aF0.332061709004
aF0.297802106511
aF0.00937530654601
aF0.0212012666108
aF0.0642391415534
aF0.0636484729664
aF0.100250904492
aF0.394249219287
aF0.0232521778595
aF0.018315868019
aF0.0585870086325
aF0.0555939874827
aF0.0642884394421
aF0.0697240969056
aF0.110113876837
aF0.0760224741837
aF0.224655154775
aF0.179395023387
aF0.361735505546
aF0.462207610867
aF0.118278048263
aF0.0538772987182
aF0.0273138254709
aF0.131538321707
aF0.106279520917
aF0.143062642665
aF0.0240044806632
aF0.0313819646251
aF0.230086664645
aF0.06839212406
aF0.0373637805606
aF0.117157326991
aF0.0674480206881
aF0.0642018635763
aF0.0166548954132
aF0.235332683132
aF0.0380597642611
aF0.0118740357914
aF0.0341667942563
aF0.235144014529
aF0.22130929156
aF0.664412582275
aF0.0160488883452
aF0.132732516438
aF0.0229640993717
aF0.278223085738
aF0.100023006381
aF0.0192360514283
aF0.718410741153
aF0.0666253187713
aF0.0403096264871
aF0.839528979364
aF0.124042228054
aF0.0488590400177
aF0.0159276404506
aF0.179474348226
aF0.0985216230208
aF0.0303995335223
aF0.0408401627435
aF0.0366736231307
aF0.110617614767
aF0.0759573832801
aF0.269806513425
aF0.0544813057389
aF0.155208547508
aF0.0458537282237
aF0.0518061828966
aF0.0388303892387
aF0.106530279058
aF0.0882397486389
aF0.0899160536524
aF0.591350607457
aF0.25281713391
aF0.0592656680102
aF0.0119094978842
aF0.143025094259
aF0.17891162147
aF0.3017427818
aF0.208568737644
aF0.0250873714514
aF0.107471755705
aF0.035508515676
aF0.165388337558
aF0.0202951360231
aF0.0301294644255
aF0.0510926401743
aF0.0243293388885
aF0.120171513159
aF0.0355764947677
aF0.0937365787889
aF0.466155236575
aF0.00743232694131
aF0.0270820058347
aF0.125866910678
aF0.0407721471234
aF0.284407948935
aF0.017063470484
aF0.0668677375393
aF0.0748498574306
aF0.0750136996925
aF0.219057299922
aF0.244919158122
aF0.49171071
aF0.0738734216094
aF0.0623923568285
aF0.10153032066
aF0.0315465839642
aF0.256482147123
aF0.023971344396
aF0.059565748819
aF0.461084816979
aF0.450290701539
aF0.0149393997262
aF0.219720046591
aF0.140537818356
aF0.00941175530702
aF0.068426650627
aF0.0227642545335
aF0.0521949815756
aF0.0346641288614
aF0.223344050085
aF0.556056089823
aF0.0552758819355
aF0.104369614451
aF0.00728901357031
aF0.307431086892
aF0.0116631964972
aF0.0316754158162
aF0.204001779528
aF0.00917919814522
aF0.0814932791217
aF0.0594485372737
aF0.263900085845
aF0.482055678934
aF0.0203416139215
aF0.641465034063
aF0.0411523754039
aF0.0716420280857
aF0.0240346306771
aF0.068609024816
aF0.1172533195
aF0.0160872544588
aF0.181053107278
aF0.0685595058032
aF0.020443061679
aF0.45227722298
aF0.172601377815
aF0.0389179905895
aF0.0252149893675
aF0.0327730946686
aF0.620797623747
aF0.2421446615
aF0.173180881122
aF0.293972116452
aF0.198854610976
aF0.143555797692
aF0.367197710392
aF0.0477999526286
aF0.0193505276362
aF0.0192673051809
aF0.164275274606
aF0.0654268545113
aF0.0667749974973
aF0.0798001335059
aF0.0161282904723
aF0.0399630178421
aF0.0502356903728
aF0.0415302866937
aF0.0265388134314
aF0.383982167496
aF0.0311129710826
aF0.0754755606057
aF0.342393046948
aF0.0155621961273
aF0.077666888432
aF0.0237481634685
aF0.623075934025
aF0.180253922425
aF0.226499521884
aF0.14021661302
aF0.0162656059685
aF0.124859896184
aF0.355008720606
aF0.0726649668441
aF0.158306135398
aF0.172529391097
aF0.14153632037
aF0.0889918684524
aF0.834179981497
aF0.172494194716
aF0.069485749998
aF0.018164541146
aF0.188476379444
aF0.0725687162009
aF0.346441789275
aF0.409893087019
aF0.173041713189
aF0.0383544083501
aF0.144516112306
aF0.044849777259
aF0.128260612134
aF0.0214867503254
aF0.341826249269
aF0.0278880598346
aF0.169332465741
aF0.191724673841
aF0.0648573743237
aF0.432990735282
aF0.00975890711743
aF0.0188880220831
aF0.0234522130749
aF0.0732319242465
aF0.557494229692
aF0.0352971264528
aF0.652834906814
aF0.488939370722
aF0.106386148528
aF0.262379332137
aF0.0547020740323
aF0.431050302801
aF0.0312383671386
aF0.0926012682558
aF0.0809073410904
aF0.0649223236866
aF0.0960944178502
aF0.402142893591
aF0.44118538571
aF0.554885374839
aF0.081868213501
aF0.0380258743676
aF0.144331690829
aF0.0509720902932
aF0.443522901286
aF0.0866474706445
aF0.0538602144106
aF0.0933197065693
aF0.103301057392
aF0.296102763454
aF0.0603409158356
aF0.173708556707
aF0.164064442341
aF0.169226627605
aF0.0211035532937
aF0.242961381643
aF0.030993177805
aF0.056368952408
aF0.05047577605
aF0.20295402099
aF0.0315686890712
aF0.0153972935706
aF0.0411261220169
aF0.120875951775
aF0.0188820672224
aF0.0617143754047
aF0.180163185875
aF0.0312682322056
aF0.0247747005071
aF0.0399681515937
aF0.019915904943
aF0.0988374657398
aF0.0482235929466
aF0.266143267672
aF0.0840442141426
aF0.427015290553
aF0.180299804743
aF0.102422324111
aF0.230181240233
aF0.177039381071
aF0.097128382944
aF0.378525689072
aF0.0827031833522
aF0.0256424440573
aF0.0672119954379
aF0.475995418652
aF0.0766699382693
aF0.072570548678
aF0.0208767244678
aF0.210026416818
aF0.0409101931846
aF0.545720834405
aF0.0324811629887
aF0.0410093982876
aF0.457852097933
aF0.152391401293
aF0.0601435311314
aF0.0923162388307
aF0.0510190578834
aF0.186532804859
aF0.111393969913
aF0.456167889127
aF0.0147431606191
aF0.0177070943581
aF0.106689819685
aF0.0671537315508
aF0.0768413698472
aF0.138317146287
aF0.277620438117
aF0.0858641837576
aF0.0638821434122
aF0.107968167264
aF0.0167304179308
aF0.0655129264341
aF0.15274548982
aF0.0470097979987
aF0.099830686075
aF0.167332541698
aF0.0537561703925
aF0.0270775525067
aF0.0492764393942
aF0.115104897407
aF0.0175103462861
aF0.0699390275111
aF0.0509497267253
aF0.0142300419519
aF0.13957139991
aF0.0514050523451
aF0.0578043703751
aF0.0578474401496
aF0.231157200263
aF0.0507301680599
aF0.0650971232377
aF0.343161096612
aF0.0903347165496
aF0.0430957412517
aF0.055541186262
aF0.0252263582021
aF0.0471551214825
aF0.0253169601333
aF0.174815689114
aF0.0342179570178
aF0.04012477565
aF0.0690379418915
aF0.182820419185
aF0.393072709815
aF0.509835959283
aF0.12417546591
aF0.0445642397147
aF0.125500162063
aF0.198604561238
aF0.129706825718
aF0.10419366235
aF0.76405126243
aF0.187746322701
aF0.0404427437642
aF0.0464399833864
aF0.241480372307
aF0.234025139255
aF0.0613382028261
aF0.04008121377
aF0.0977251630108
aF0.0641852741201
aF0.619500492605
aF0.0870691078335
aF0.053828427251
aF0.474835396057
aF0.0111967480924
aF0.0257528343024
aF0.229075438814
aF0.131987945535
aF0.0836140475367
aF0.0720058151158
aF0.496771713291
aF0.066687707075
aF0.0943640661439
aF0.0480613736068
aF0.0212225235919
aF0.0751241512253
aF0.0217224595297
aF0.214843225124
aF0.013721433098
aF0.40168286381
aF0.158996743387
aF0.614071886895
aF0.323228832508
aF0.0351902647947
aF0.294219239876
aF0.315236424261
aF0.0239449018081
aF0.0720785354495
aF0.105762325671
aF0.0180516465204
aF0.0616024131233
aF0.627958673061
aF0.685357958052
aF0.193963919242
aF0.161795459012
aF0.113447797071
aF0.0452397719237
aF0.0507079405025
aF0.186773474823
aF0.142529348247
aF0.0533776623633
aF0.196727290044
aF0.0238452469532
aF0.0590552557799
aF0.0125304065481
aF0.59462215804
aF0.048316120882
aF0.0236921130436
aF0.0394697382925
aF0.270889305125
aF0.259569314226
aF0.722526055568
aF0.437493959728
aF0.0103644476557
aF0.0108802201167
aF0.0854114926775
aF0.0396027908387
aF0.05462986066
aF0.0365014244535
aF0.05454154227
aF0.0610673044294
aF0.549878046983
aF0.0478861000732
aF0.0652682203043
aF0.190826334803
aF0.0190352329833
aF0.466199073421
aF0.143190958283
aF0.12232140691
aF0.0833601346606
aF0.390375294631
aF0.123312397043
aF0.0654222559274
aF0.0461621458463
aF0.123901602608
aF0.0333688469005
aF0.427731079202
aF0.0880312873086
aF0.0308028573196
aF0.503987198363
aF0.111976066694
aF0.0381177333078
aF0.0374981391007
aF0.0334283665208
aF0.0923900150932
aF0.0105308343505
aF0.0612660309766
aF0.512162368099
aF0.102484689285
aF0.0305830322776
aF0.0339424144855
aF0.0500428509592
aF0.0423806594934
aF0.147893849428
aF0.0452996491437
aF0.080820818593
aF0.0336865236375
aF0.118592515178
aF0.0172068423746
aF0.0445594147052
aF0.0123996250221
aF0.200578378622
aF0.198526704011
aF0.0310301291817
aF0.0216864986834
aF0.0568731772552
aF0.0425560749847
aF0.0295743505216
aF0.0301656000411
aF0.0115790705202
aF0.0282839023728
aF0.120627516249
aF0.00987832042592
aF0.0365434510858
aF0.00892782673919
aF0.0400994890705
aF0.0296102743095
aF0.480216728411
aF0.762800442247
aF0.119826299921
aF0.0544145288289
aF0.83763867669
aF0.431408436554
aF0.0524220627239
aF0.0374757976135
aF0.555985081818
aF0.421672224704
aF0.100356868664
aF0.0647352822133
aF0.579217739959
aF0.348173585857
aF0.024763970295
aF0.38519252838
aF0.00635873139458
aF0.0919118208404
aF0.0134053949703
aF0.116054327849
aF0.0911835571904
aF0.043256853929
aF0.0514749938981
aF0.0732813161372
aF0.0552016000173
aF0.012464767552
aF0.0544100913082
aF0.32276371161
aF0.118955662447
aF0.0499086979001
aF0.221185464462
aF0.0406579823766
aF0.0756681014328
aF0.0591120043975
aF0.00908532628674
aF0.246757270171
aF0.162609736942
aF0.295949936456
aF0.0458014485685
aF0.230591883777
aF0.103883297417
aF0.453414446737
aF0.0705771027215
aF0.0510621493278
aF0.0961336019323
aF0.654136322697
aF0.0310372803269
aF0.51366388846
aF0.0142513624768
aF0.0679684497549
aF0.0221564593231
aF0.0539313053016
aF0.0850025981499
aF0.022955621353
aF0.673866830633
aF0.0175973551038
aF0.362522557767
aF0.0171356021229
aF0.448185969216
aF0.0278642696069
aF0.0326545729409
aF0.0525293756111
aF0.173518699434
aF0.151407632202
aF0.118895749584
aF0.759562691369
aF0.0251020800763
aF0.0307931853951
aF0.0409165244259
aF0.051055671149
aF0.0272751944342
aF0.0370316285258
aF0.112896115617
aF0.0508517351328
aF0.489333837204
aF0.0185688733237
aF0.0489615458563
aF0.435670752098
aF0.0284531411254
aF0.0274158122444
aF0.0690897605151
aF0.0997270764253
aF0.0409667084041
aF0.0538809523356
aF0.011208336063
aF0.0561064387622
aF0.042957692556
aF0.0243737493894
aF0.215411866486
aF0.107803458208
aF0.15212018552
aF0.100606686092
aF0.125791898935
aF0.0848779447586
aF0.0260221825202
aF0.0252794165218
aF0.209935578933
aF0.0730294765914
aF0.706624040662
aF0.15406993541
aF0.104135072293
aF0.137367923269
aF0.0112438327682
aF0.00850762580325
aF0.0104096875423
aF0.0298231696101
aF0.32974206233
aF0.182155342089
aF0.0428221930727
aF0.0738439567592
aF0.0535764674461
aF0.0345926712933
aF0.179266346375
aF0.0106408117872
aF0.0224136241782
aF0.0269681678947
aF0.0118228862154
aF0.0578853524741
aF0.163435566829
aF0.109447764453
aF0.0904747036081
aF0.0616843761527
aF0.246630667368
aF0.0099760055537
aF0.0596896931012
aF0.146916676103
aF0.464472322059
aF0.0213041244063
aF0.0517588564788
aF0.528429797107
aF0.110486485883
aF0.368627404401
aF0.0894721166203
aF0.0328266599808
aF0.3698945825
aF0.0538920120303
a.