(lp0
F0.08608867530218381
aF0.07023934827083604
aF0.030319114948518393
aF0.02772599968952187
aF0.1222026459988268
aF0.13810255457512477
aF0.31557358180543343
aF0.016425925414305643
aF0.06448930322120744
aF0.07347290055637246
aF0.0238331415351802
aF0.3438263708378865
aF0.05940084772283846
aF0.16919301655729316
aF0.10568462759313453
aF0.22027282688046457
aF0.15645695726603193
aF0.20423717000239713
aF0.057230492147252794
aF0.19045705247305264
aF0.05190499737656078
aF0.08629944318781807
aF0.19464822349478791
aF0.22057602812823232
aF0.19235907235741959
aF0.0922081336538506
aF0.2938294693487756
aF0.1561036016297427
aF0.036031460934964885
aF0.15996365101660082
aF0.1328294762473903
aF0.08801603679236113
aF0.2303642016683192
aF0.18666629562365258
aF0.12160494109525867
aF0.19822462320702086
aF0.110852660886364
aF0.13342460187115437
aF0.17067933555278042
aF0.1941626266301576
aF0.04338207431577576
aF0.04825375366721143
aF0.07634254283173354
aF0.15413814131651263
aF0.08049608561699968
aF0.19799651212191097
aF0.24102938062338536
aF0.18496691964063186
aF0.05094792342318211
aF0.07193148548708754
aF0.0490132153380797
aF0.15928955963705568
aF0.07273150048017668
aF0.22996786739426223
aF0.11300663032901698
aF0.17971275070611858
aF0.09190484533736301
aF0.11248556437879625
aF0.14760063386576683
aF0.1677077587675282
aF0.274896553723653
aF0.12821378178423284
aF0.10853328779868608
aF0.07281969241121496
aF0.27242947396392847
aF0.03083692407700647
aF0.14504115918309168
aF0.15563708212170307
aF0.1756041368590243
aF0.04503512898602876
aF0.3365333076387206
aF0.27023437293630004
aF0.15528219921723405
aF0.12409851704552508
aF0.05284001648244396
aF0.2271751823810735
aF0.15169050174259138
aF0.05185528211503213
aF0.21231857488757233
aF0.15140504925878717
aF0.07417168411356698
aF0.1786391559497044
aF0.28081383627926637
aF0.08231362344924506
aF0.1556805103559161
aF0.1788578469901653
aF0.13496104765263686
aF0.20720686038175556
aF0.02778388343937145
aF0.060921288411983944
aF0.045670383425720364
aF0.08256036414148855
aF0.05534495925972544
aF0.08912150480762797
aF0.1202150497871829
aF0.15783001045965706
aF0.14517750391772405
aF0.10589819392827285
aF0.17993362461548812
aF0.04782816088044312
aF0.1744968493219504
aF0.06314149477856354
aF0.22939288881822129
aF0.13654948353380075
aF0.15967015971516807
aF0.03814346122350766
aF0.06902544145186532
aF0.04979325116441437
aF0.1996676394096992
aF0.055981480538826546
aF0.22530363535706352
aF0.10187261799242257
aF0.1651917781821772
aF0.11048977461460731
aF0.037944897042108815
aF0.15715461853496523
aF0.10064570774094768
aF0.041911693520581064
aF0.1747996636955865
aF0.048151785071718925
aF0.059471030817659504
aF0.2925412222092289
aF0.031154061246561327
aF0.11095765042852093
aF0.16959398986124022
aF0.19582467797680936
aF0.1733819514605127
aF0.1740215069079495
aF0.11428632837889569
aF0.06439164123111475
aF0.1439467912620907
aF0.20219436823383738
aF0.0918655964913042
aF0.05259553945193189
aF0.06384431573680181
aF19912.534533033973
aF0.09871314400123335
aF0.20130120127891274
aF0.06847707106746066
aF0.01652154307929643
aF0.05539053994812935
aF0.07031676648040103
aF0.05519801448348222
aF0.05560017259827833
aF0.28093892859956343
aF0.10347677587228936
aF0.05899722427571189
aF0.1632494184793456
aF0.12595783272717684
aF0.027670191029257947
aF0.10815396566347461
aF0.08969984786037602
aF0.13619874796842313
aF0.16250551852042674
aF0.032734116252503394
aF0.062385688291458644
aF0.018831801853044634
aF0.096136538863497
aF0.030915902948170596
aF0.15079010358448983
aF0.09425790352555218
aF0.11640156090756502
aF0.08091375929387216
aF0.2557814350143946
aF0.19664681807272766
aF0.12360297710008589
aF0.08418098080024604
aF0.22021684824298585
aF0.02579476517284436
aF0.07285307632715643
aF0.08931001205249113
aF0.1513214964658775
aF0.015711916232261664
aF0.07007006775823156
aF0.08268811208530027
aF0.07409352623200055
aF0.02500280484082911
aF0.12780686996722135
aF0.039439526708669015
aF0.10667076182381063
aF0.1513629338013781
aF0.05798492984387694
aF0.06998610810548132
aF0.048610408866974854
aF0.22222647005149135
aF0.048912381749916065
aF0.24558536973025766
aF0.2814958003544182
aF0.05318130564343101
aF0.09034005902729061
aF0.23194326259099587
aF0.08193987878221813
aF0.054847519292722115
aF0.20222643594906886
aF0.2462975445021356
aF0.04759477105398728
aF0.2563327935433287
aF0.06401915706929491
aF0.1291265326696368
aF0.19904036743917
aF0.13465785685703832
aF0.26280417860284
aF0.13631193372311187
aF0.09276714303059494
aF0.04057851756392506
aF0.2110038002508915
aF0.06314352603232852
aF0.1602942746058801
aF0.12891709915169866
aF0.10634363035494755
aF0.08123679491543194
aF0.31520494288462536
aF0.11422548441819912
aF0.16790782027231052
aF0.13962650997886683
aF0.14892813300771773
aF0.11819957513294121
aF0.03277673548274144
aF0.04855083599404396
aF0.06607905089327358
aF0.22533264116253093
aF0.061635413503999044
aF0.03574035493377194
aF0.04735568505977489
aF0.05807734415795775
aF0.12095257241275101
aF0.12110354313689696
aF0.14525843253689388
aF0.2534305823295326
aF0.09968138861379446
aF0.02567702848927311
aF0.11073455206193991
aF0.03489537544732044
aF0.021639352212440184
aF0.05247366212244267
aF0.21211526782059553
aF0.0382021738566362
aF0.10825152971576942
aF0.26912692081390605
aF0.07341227078663526
aF0.11001711472056269
aF0.0675960422045559
aF0.016994588725739782
aF0.1840463023214668
aF0.17023724958311698
aF0.03589558724111685
aF0.13004886865809653
aF0.2763967318691162
aF0.04727240069964484
aF0.11473350477166053
aF0.2971996971939537
aF0.12136774533045662
aF0.11939159330946532
aF0.2353321413820532
aF0.08810483948745425
aF0.02880263308665741
aF0.06242924010792407
aF0.10290369409774869
aF0.037374232999821594
aF0.0458394046415151
aF0.0689676438452949
aF0.17955999276671555
aF0.06948503675560302
aF0.13947338440175294
aF0.14775210232681166
aF0.2021119060513398
aF0.10356349199975452
aF0.21661275715213513
aF0.09252540744261398
aF0.1292155728261573
aF0.18564696832614516
aF0.3235449084316008
aF0.05089187155010378
aF0.03209297570880222
aF0.040560603288592297
aF0.14204100301862907
aF0.2128291830271764
aF0.05182637897075747
aF0.10388928100221426
aF0.17352075458376115
aF0.06795115457413152
aF0.16491644570436548
aF0.26136720106994604
aF0.14072063522256822
aF0.20903019449768287
aF0.20866904211682233
aF0.09619648398699086
aF0.17626291535338215
aF0.2481282489387799
aF0.18200136899842584
aF0.022725889645449256
aF0.3168466414246596
aF0.1272924484496891
aF0.13937970227244653
aF0.03046840793037892
aF0.2715762166232543
aF0.047963032103973416
aF0.1555157908629114
aF0.12853313001121272
aF0.11466269385675312
aF0.06288456617068683
aF0.09662235060500951
aF0.05812238944730948
aF0.0207902636011461
aF0.13195352331803778
aF0.18827537819069315
aF20616.526598986737
aF0.09703401666373923
aF0.2798964631954869
aF0.0737665525366234
aF0.11090172306009381
aF0.3237455585159253
aF0.051112093564799996
aF0.13198002459732747
aF0.08744223411383703
aF0.05622444670030585
aF0.2026057022367025
aF0.24863353017198608
aF0.032637546084246495
aF0.0232304143503348
aF0.13381618042362012
aF0.2417805817918006
aF0.15390177659383428
aF0.06659862982250776
aF0.14321473475594182
aF0.13631227850306946
aF0.03502532817009508
aF0.03996037861567443
aF0.05797391204992719
aF0.11396096888040418
aF0.31520494288462536
aF0.04617379514544058
aF0.05255598300327574
aF0.07060262486908264
aF0.225985191826009
aF0.14117812689957118
aF0.04471417388822235
aF0.15295953802435114
aF0.14989699148443097
aF0.09945184608540221
aF0.09656041027712871
aF0.12772095425927762
aF0.07834095731148173
aF0.25305493502205806
aF0.19491965692269542
aF0.05395984805387597
aF0.10097621168840334
aF0.10247501819821903
aF0.14553657739329023
aF0.15460144620112287
aF0.14018256219552996
aF0.12343916627001923
aF0.2170110965949183
aF0.16720141044599107
aF0.19773934030305612
aF0.10626751624900702
aF0.02900997754233485
aF0.04547516984571591
aF0.03833224953217573
aF0.2570720972517281
aF0.09673320536743786
aF0.0773767727290902
aF0.04100084435703132
aF0.24251326463057238
aF0.1810039045841599
aF0.05250717262974315
aF0.11313444735026716
aF0.10395728792856973
aF0.026449198659670693
aF0.054198590651874885
aF0.16021113763169176
aF0.23153774505879138
aF0.0634092940471768
aF0.1308773084656597
aF0.0982452586671352
aF0.021705432815955175
aF0.024868609693354735
aF0.03038477136312835
aF0.07078737020709185
aF0.2903507398330684
aF0.033371301013536754
aF0.12238722965991955
aF0.14897952581837265
aF0.12473719155808476
aF0.12220518209065663
aF0.17005843683076233
aF0.15962769610180058
aF0.033887652357150924
aF0.045598427738894026
aF0.2332650444943593
aF0.016281883159705947
aF0.250970090379863
aF0.07533480348547243
aF0.15139812505341665
aF0.15858887281089779
aF0.09341779881126795
aF0.040957587360278463
aF0.05196826434749586
aF0.07419018696746012
aF0.1173978908240068
aF0.026699494412662974
aF0.1626945226589195
aF0.08752715002271984
aF0.18135585314479113
aF0.163272728681873
aF0.1017125034852201
aF0.07066173590007324
aF0.041758415204896475
aF0.21944264547584127
aF0.25725224204407554
aF0.06929682302121327
aF0.2421485757110372
aF0.2299236120310814
aF0.14866262059478572
aF0.1616962778637795
aF0.12943713928379974
aF0.1355183660626934
aF0.07177618336038753
aF0.06994845674318588
aF0.15105282853018334
aF0.04838365436156208
aF0.24331436765551973
aF0.18835141295793936
aF0.11549586459861205
aF0.36080758689050463
aF0.24499695591367815
aF0.3379470511913829
aF0.03458475563198016
aF0.18636079700940084
aF0.0958466183736672
aF0.25413805181259136
aF0.06741392602416495
aF0.07483889352291402
aF0.02144162228878397
aF0.10882748871063222
aF0.06934786521802906
aF0.3214721858418295
aF0.024817820934851333
aF0.10615673622941231
aF0.10068355239396967
aF0.02169976142849033
aF0.031416662394968375
aF0.12065309350100697
aF20790.923243286215
aF0.021535144167402452
aF0.0992852565072883
aF0.10197717180848981
aF0.08492934840014144
aF0.2835609894883424
aF0.2289709585525249
aF0.022613729272655803
aF0.16090127878691157
aF0.18068506309952373
aF0.10127213223168503
aF0.2619143396393556
aF0.0786202662368667
aF0.14763575973403759
aF0.03239936325733243
aF0.10905914259995349
aF0.2746714527595163
aF0.11640011435170385
aF0.12257339695539972
aF0.24270925722348127
aF0.11981592411913312
aF0.06499392723133124
aF0.04965863686675657
aF0.1589366719859439
aF0.04632211482107921
aF0.16600603678263823
aF0.05949052646357791
aF0.060655425481721675
aF0.062061966997250764
aF0.015251625455043553
aF0.13513279567352718
aF0.03094339438419172
aF0.05791331920010909
aF0.05626917475451384
aF0.13061622255695265
aF0.0433533863110432
aF0.13395799638216238
aF0.040088132538590344
aF0.1189301328036102
aF0.11009169946286589
aF0.3684823250013167
aF0.22830691045675497
aF0.06343391575312064
aF0.026676475422425704
aF0.04984569951447265
aF0.18136715420677804
aF0.3403658115326685
aF0.13664645614668433
aF0.04321320492709907
aF0.26048427108822836
aF0.049789032283483796
aF0.08760012647368581
aF0.2324733044784756
aF0.13082132454645515
aF0.1773776340249732
aF0.1554747041762658
aF0.07615106226332304
aF0.1626394092451946
aF0.09276271548623548
aF0.04845736421316942
aF0.09204563200728497
aF0.2503100833574631
aF0.15945336259283183
aF0.1587766202390379
aF0.19694009586772698
aF0.17569349778744622
aF0.027374724152398562
aF0.16335397203882254
aF0.1649835462836716
aF0.17833751229173783
aF0.03501865272160532
aF0.022046708193658577
aF0.0824808233490936
aF0.08637862313516788
aF0.06591228659097102
aF0.053514595976963925
aF0.1456081101716294
aF0.06097748511824309
aF0.028945420743149923
aF0.03769299249685683
aF0.045805727648933064
aF0.023544744623262635
aF0.06424289091149528
aF0.19734088243869682
aF0.12502526125301258
aF0.042881856353700946
aF0.12124096239984164
aF0.08482192578994238
aF0.11311223393774081
aF0.08790290721605962
aF0.1250795478635784
aF0.039762120162385145
aF0.2533671744817917
aF0.16867373663816274
aF0.09801549901032541
aF0.05385497732790734
aF0.2385968373532948
aF0.0652255708487586
aF0.10923341753504792
aF0.051721662023121825
aF0.0691402923023669
aF0.05550987504227717
aF0.23120511245485434
aF0.06848018240799846
aF0.1118325754104989
aF0.0310766764867675
aF0.188452806588606
aF0.039633932078533
aF0.21014102466462875
aF0.12131748999137659
aF0.11191810197227368
aF0.03784696764189514
aF0.137406262390658
aF0.25414814511270445
aF0.07135658960939638
aF0.12347390045827122
aF0.04792241734078624
aF0.156235046588475
aF0.04548438200352335
aF0.06410925381507987
aF0.2383975649844836
aF0.25000503384491585
aF0.11098982414551634
aF0.2862326724828944
aF0.10993229206841827
aF0.17693075167307826
aF0.08175579528507063
aF0.33010059876791603
aF0.13204694700288547
aF0.15554489368988558
aF0.017726350159769495
aF0.13021204593870517
aF0.03118581162081192
aF0.049675463917165166
aF0.1493544092346699
aF0.03495786277313541
aF0.11816440266660641
aF0.10413560332328982
aF0.15903726972302618
aF0.07449806279950161
aF0.023168757770843824
aF0.15044291124015544
aF0.19137478222666057
aF0.20849889819652992
aF0.16970239594602549
aF0.15329515466177873
aF0.04953349198205934
aF0.10951271831661968
aF0.19731242351949838
aF0.15928981054757121
aF0.10822126886111456
aF0.11049642290275559
aF0.07300969388880688
aF0.06118421194842921
aF0.19326979188983226
aF0.2576331086409543
aF0.23431944059492615
aF0.03697668287098393
aF0.1530015241143377
aF0.08280407155145013
aF0.15660832338315492
aF0.09616067514164861
aF0.08996069350487636
aF0.14275838824653686
aF0.03473547707947884
aF0.10261787310580615
aF0.04072276231645969
aF0.1720084744726348
aF0.05035008301368454
aF0.022835006602648977
aF0.12372169181872925
aF0.30782763565668336
aF0.10230787673171268
aF0.10444863198772471
aF0.21722362123514397
aF0.038519259305118195
aF0.04195292468132018
aF0.11680375749450146
aF0.1667316698458528
aF0.1556234678601886
aF0.3313603703991048
aF0.08078681312181371
aF0.02394465067659789
aF0.2199683367624534
aF0.06187452848092871
aF0.018816353850610052
aF0.1613657116952116
aF0.08715540313689993
aF0.028400013333482958
aF0.11568030079114573
aF0.19958309738605495
aF0.0925988373992807
aF0.16059121848452343
aF0.06170755926592745
aF0.03835988667237163
aF0.03548177500410491
aF0.04809516341069953
aF0.06261196090106895
aF0.22492623516999172
aF0.07447068200475822
aF0.2625956498521125
aF0.15895827494481296
aF0.07465012966101853
aF0.05753748648858503
aF0.19551120911975245
aF0.2535333727060791
aF0.13750486942415008
aF0.0844223818839082
aF0.08338263351103396
aF0.06695138951580891
aF0.11013179576167574
aF0.19234885892729117
aF0.30068878937307714
aF0.07572320299316526
aF0.013929183652096389
aF0.03778720030483976
aF0.1940090833436361
aF0.10942778436348792
aF0.0281849243110613
aF0.08751554105759045
aF0.20462544010681227
aF0.2668247127580081
aF0.11340136675002432
aF0.22386953708203783
aF0.054406198213043745
aF0.1280835478919143
aF0.13996571666165356
aF0.10480653612800482
aF0.16243821319713472
aF0.0558906281975208
aF0.049046270674055564
aF0.10702991588666703
aF0.038902536239420894
aF0.04300646840649322
aF0.022034421829720686
aF0.18725349908520508
aF0.20017669303502458
aF0.10321890623620246
aF0.05257219663720678
aF0.0236422290628465
aF0.06056568962289305
aF0.048902795044917284
aF0.0589823186227136
aF0.05581658998232966
aF0.08605561419508613
aF0.1202067229848637
aF0.13526314717017787
aF0.07293646597197512
aF0.1405321763789467
aF0.16018022763729967
aF0.019900122191341258
aF0.1195527035170322
aF0.1187272778921451
aF0.06462142304726802
aF0.17533278832864915
aF0.1463405932601334
aF0.036104096685761054
aF0.1586129943661266
aF0.11285250037066248
aF0.12157181914399638
aF0.045830591360313686
aF0.1501466694659328
aF0.28940557699104014
aF0.0841881718652614
aF0.05917667803534549
aF0.028066500817470193
aF0.11130364522082722
aF0.09331504594013033
aF0.2955186277512659
aF0.20075588109300185
aF0.14110395807892745
aF0.12490384827476324
aF0.09495001068517332
aF0.1749410534840332
aF0.26325188568562635
aF0.10195099865162408
aF0.11433153493522916
aF0.12653465754286483
aF0.23628240104412296
aF0.22066402089095133
aF0.11241981982390352
aF0.0583847920428253
aF0.2689694515548329
aF0.119125810481046
aF17580.30709105094
aF0.048910447239073285
aF0.14786350231366907
aF0.09250297901176992
aF0.028128512977363518
aF0.14764183734219113
aF0.156554794598818
aF0.16429530358792002
aF0.04823418915479081
aF0.1419700232962841
aF0.13180628793775817
aF0.044437537108881514
aF0.212792623174814
aF0.216518912287562
aF0.0731767080839229
aF0.07966255075278321
aF0.05252332180908659
aF0.2563143911857731
aF0.2369426024924765
aF0.059425446098369424
aF0.04607093363078338
aF0.11668786012885687
aF0.08726850244668005
aF0.27536221433032876
aF0.08867150014560772
aF0.08038551167947418
aF0.08795165791061431
aF0.2162554598072046
aF0.08848043892219148
aF0.10370857525349174
aF0.0926370081554103
aF0.025698956105439423
aF0.07107964833782224
aF0.025062243586461086
aF0.18889466248472522
aF0.1509841465206548
aF0.18598975855116384
aF0.09469090051562663
aF0.07581015352856686
aF0.2662650748796922
aF0.10674067315749484
aF0.053225590407816145
aF0.18328612198684632
aF0.07861470951761629
aF0.03991565545540138
aF0.07581173369703044
aF0.11352196462661866
aF0.16237525545837178
aF0.07049219900926056
aF0.06784916759601255
aF0.05311001071682769
aF0.14707791746772128
aF0.057785514102596705
aF0.11030758497451036
aF0.01861919053126567
aF0.1165180755271597
aF0.13753328014875013
aF0.2400823277270105
aF0.11962622659341726
aF0.05000746290090572
aF0.1996676394096992
aF0.04079791688345438
aF0.1484873378594001
aF0.09373976647809351
aF0.1374343079044443
aF0.10647025279133217
aF0.1306454986630125
aF0.26627997618938176
aF0.046869604081185366
aF0.12646102920545013
aF0.04228064129225773
aF0.07268170909402222
aF0.10902169142689114
aF0.03130695666016456
aF0.05620924113697774
aF0.15327660304343393
aF0.08416638716118872
aF0.23722868553649398
aF0.13789015276596364
aF0.17290291616852282
aF0.07259827125513411
aF0.15845876926409802
aF0.2090571999776547
aF0.11854556800625389
aF0.17756263678543546
aF0.06363485929167173
aF0.04251946839071132
aF0.10209913167083058
aF0.20935430392713184
aF0.09378774293604134
aF0.05362499559828398
aF0.16505332116459695
aF0.04523359453824655
aF0.03947394922575425
aF0.060211213294922655
aF0.1802737512762472
aF0.07213017908571019
aF0.04964194412851131
aF0.10708828696037274
aF0.26437362208815085
aF0.10059938989033955
aF0.3275127441125772
aF0.02462241259689083
aF0.0924915295750756
aF0.216162513117743
aF0.24423741264101578
aF0.0781711926916033
aF0.2105701679647215
aF0.18473131871100545
aF0.12497417632223155
aF0.11843886164841849
aF0.05261320138624184
aF0.11241900606465899
aF0.10586985956337025
aF0.06185359073360827
aF0.07106771843201705
aF0.06658497169758858
aF0.25529151660769017
aF0.04584605560110574
aF0.10099196244775269
aF0.14853113051835434
aF0.09491759785822522
aF0.07920915466514117
aF0.3099276014067463
aF0.13427927802599354
aF0.06324239226248801
aF0.0691353738688318
aF0.01271608200334487
aF0.14981727463687225
aF0.26504689721504004
aF0.1449459553403989
aF0.07592248260178747
a.